; Function Attrs: mustprogress uwtable
define void @_ZNK32pxrInternal_v0_24__pxrReserved__10GfRotation12TransformDirERKNS_7GfVec3dE(ptr dead_on_unwind noalias nocapture writable writeonly sret(%"class.pxrInternal_v0_24__pxrReserved__::GfVec3d") align 8 %0, ptr noundef nonnull align 8 dereferenceable(32) %1, ptr nocapture noundef nonnull readonly align 8 dereferenceable(24) %2) local_unnamed_addr #0 align 2 {
  %4 = alloca %"class.pxrInternal_v0_24__pxrReserved__::GfMatrix4d", align 8
  call void @llvm.memset.p0.i64(ptr noundef nonnull align 8 dereferenceable(128) %4, i8 0, i64 128, i1 false)
  %5 = call noundef nonnull align 8 dereferenceable(128) ptr @_ZN32pxrInternal_v0_24__pxrReserved__10GfMatrix4d9SetRotateERKNS_10GfRotationE(ptr noundef nonnull align 8 dereferenceable(128) %4, ptr noundef nonnull align 8 dereferenceable(32) %1)
  call void @llvm.experimental.noalias.scope.decl(metadata !107)
  %6 = load double, ptr %2, align 8, !noalias !107
  %7 = load double, ptr %5, align 8, !noalias !107
  %8 = getelementptr inbounds i8, ptr %2, i64 8
  %9 = load double, ptr %8, align 8, !noalias !107
  %10 = getelementptr inbounds i8, ptr %5, i64 32
  %11 = load double, ptr %10, align 8, !noalias !107
  %12 = fmul double %9, %11
  %13 = call double @llvm.fmuladd.f64(double %6, double %7, double %12)
  %14 = getelementptr inbounds i8, ptr %2, i64 16
  %15 = load double, ptr %14, align 8, !noalias !107
  %16 = getelementptr inbounds i8, ptr %5, i64 64
  %17 = load double, ptr %16, align 8, !noalias !107
  %18 = call double @llvm.fmuladd.f64(double %15, double %17, double %13)
  %19 = getelementptr inbounds i8, ptr %5, i64 8
  %20 = load double, ptr %19, align 8, !noalias !107
  %21 = getelementptr inbounds i8, ptr %5, i64 40
  %22 = load double, ptr %21, align 8, !noalias !107
  %23 = fmul double %9, %22
  %24 = call double @llvm.fmuladd.f64(double %6, double %20, double %23)
  %25 = getelementptr inbounds i8, ptr %5, i64 72
  %26 = load double, ptr %25, align 8, !noalias !107
  %27 = call double @llvm.fmuladd.f64(double %15, double %26, double %24)
  %28 = getelementptr inbounds i8, ptr %5, i64 16
  %29 = load double, ptr %28, align 8, !noalias !107
  %30 = getelementptr inbounds i8, ptr %5, i64 48
  %31 = load double, ptr %30, align 8, !noalias !107
  %32 = fmul double %9, %31
  %33 = call double @llvm.fmuladd.f64(double %6, double %29, double %32)
  %34 = getelementptr inbounds i8, ptr %5, i64 80
  %35 = load double, ptr %34, align 8, !noalias !107
  %36 = call double @llvm.fmuladd.f64(double %15, double %35, double %33)
  store double %18, ptr %0, align 8, !alias.scope !107
  %37 = getelementptr inbounds i8, ptr %0, i64 8
  store double %27, ptr %37, align 8, !alias.scope !107
  %38 = getelementptr inbounds i8, ptr %0, i64 16
  store double %36, ptr %38, align 8, !alias.scope !107
  ret void
}